target datalayout = "e-m:e-p270:32:32-p271:32:32-p272:64:64-i64:64-i128:128-f80:128-n8:16:32:64-S128"
target triple = "x86_64-pc-linux-gnu"

@stringStore = internal global [130046 x i8] zeroinitializer, align 16

; Function Attrs: nounwind uwtable
define internal i32 @compareAliases(ptr noundef %0, ptr noundef %1) #0 {
  %3 = alloca i32, align 4
  %4 = alloca ptr, align 8
  %5 = alloca ptr, align 8
  %6 = alloca i32, align 4
  %7 = alloca i32, align 4
  store ptr %0, ptr %4, align 8, !tbaa !47
  store ptr %1, ptr %5, align 8, !tbaa !47
  call void @llvm.lifetime.start.p0(i64 4, ptr %6) #11
  %8 = load ptr, ptr %4, align 8, !tbaa !47
  %9 = load i16, ptr %8, align 2, !tbaa !32
  %10 = zext i16 %9 to i64
  %11 = shl i64 %10, 1
  %12 = getelementptr inbounds nuw i8, ptr @stringStore, i64 %11
  %13 = load ptr, ptr %5, align 8, !tbaa !47
  %14 = load i16, ptr %13, align 2, !tbaa !32
  %15 = zext i16 %14 to i64
  %16 = shl i64 %15, 1
  %17 = getelementptr inbounds nuw i8, ptr @stringStore, i64 %16
  %18 = call i32 @ucnv_compareNames_77(ptr noundef %12, ptr noundef %17)
  store i32 %18, ptr %6, align 4, !tbaa !4
  %19 = load i32, ptr %6, align 4, !tbaa !4
  %20 = icmp ne i32 %19, 0
  br i1 %20, label %37, label %21

21:                                               ; preds = %2
  %22 = load ptr, ptr %4, align 8, !tbaa !47
  %23 = load i16, ptr %22, align 2, !tbaa !32
  %24 = zext i16 %23 to i64
  %25 = shl i64 %24, 1
  %26 = getelementptr inbounds nuw i8, ptr @stringStore, i64 %25
  %27 = call i64 @strlen(ptr noundef %26) #12
  %28 = trunc i64 %27 to i32
  %29 = load ptr, ptr %5, align 8, !tbaa !47
  %30 = load i16, ptr %29, align 2, !tbaa !32
  %31 = zext i16 %30 to i64
  %32 = shl i64 %31, 1
  %33 = getelementptr inbounds nuw i8, ptr @stringStore, i64 %32
  %34 = call i64 @strlen(ptr noundef %33) #12
  %35 = trunc i64 %34 to i32
  %36 = sub nsw i32 %28, %35
  store i32 %36, ptr %3, align 4
  store i32 1, ptr %7, align 4
  br label %39

37:                                               ; preds = %2
  %38 = load i32, ptr %6, align 4, !tbaa !4
  store i32 %38, ptr %3, align 4
  store i32 1, ptr %7, align 4
  br label %39

39:                                               ; preds = %37, %21
  call void @llvm.lifetime.end.p0(i64 4, ptr %6) #11
  %40 = load i32, ptr %3, align 4
  ret i32 %40
}