; Function Attrs: nounwind uwtable
define internal i32 @compareAliases(ptr noundef readonly captures(none) %0, ptr noundef readonly captures(none) %1) #0 {
  %3 = load i16, ptr %0, align 2, !tbaa !19
  %4 = zext i16 %3 to i64
  %5 = shl nuw nsw i64 %4, 1
  %6 = getelementptr inbounds nuw i8, ptr @stringStore, i64 %5
  %7 = load i16, ptr %1, align 2, !tbaa !19
  %8 = zext i16 %7 to i64
  %9 = shl nuw nsw i64 %8, 1
  %10 = getelementptr inbounds nuw i8, ptr @stringStore, i64 %9
  %11 = tail call i32 @ucnv_compareNames_77(ptr noundef nonnull %6, ptr noundef nonnull %10) #16
  %.not = icmp eq i32 %11, 0
  br i1 %.not, label %12, label %26

12:                                               ; preds = %2
  %13 = load i16, ptr %0, align 2, !tbaa !19
  %14 = zext i16 %13 to i64
  %15 = shl nuw nsw i64 %14, 1
  %16 = getelementptr inbounds nuw i8, ptr @stringStore, i64 %15
  %17 = tail call i64 @strlen(ptr noundef nonnull dereferenceable(1) %16) #18
  %18 = trunc i64 %17 to i32
  %19 = load i16, ptr %1, align 2, !tbaa !19
  %20 = zext i16 %19 to i64
  %21 = shl nuw nsw i64 %20, 1
  %22 = getelementptr inbounds nuw i8, ptr @stringStore, i64 %21
  %23 = tail call i64 @strlen(ptr noundef nonnull dereferenceable(1) %22) #18
  %24 = trunc i64 %23 to i32
  %25 = sub nsw i32 %18, %24
  br label %26

26:                                               ; preds = %2, %12
  %.0 = phi i32 [ %25, %12 ], [ %11, %2 ]
  ret i32 %.0
}